; ModuleID = '37/250.c'
source_filename = "37/250.c"
target datalayout = "e-m:e-p270:32:32-p271:32:32-p272:64:64-i64:64-f80:128-n8:16:32:64-S128"
target triple = "x86_64-pc-linux-gnu"

@.str = private unnamed_addr constant [3 x i8] c"%d\00", align 1
@.str.1 = private unnamed_addr constant [4 x i8] c"%c\0A\00", align 1
@.str.2 = private unnamed_addr constant [4 x i8] c"no\0A\00", align 1

; Function Attrs: noinline nounwind uwtable
define dso_local void @main() #0 {
  %1 = alloca [100 x [10000 x i8]], align 16
  %2 = alloca i32, align 4
  %3 = alloca i32, align 4
  %4 = alloca i32, align 4
  %5 = alloca i32, align 4
  %6 = alloca i32, align 4
  %7 = call i32 (i8*, ...) @__isoc99_scanf(i8* getelementptr inbounds ([3 x i8], [3 x i8]* @.str, i64 0, i64 0), i32* %2)
  %8 = call i32 @getchar()
  store i32 0, i32* %3, align 4
  br label %9

9:                                                ; preds = %19, %0
  %10 = load i32, i32* %3, align 4
  %11 = load i32, i32* %2, align 4
  %12 = icmp slt i32 %10, %11
  br i1 %12, label %13, label %22

13:                                               ; preds = %9
  %14 = load i32, i32* %3, align 4
  %15 = sext i32 %14 to i64
  %16 = getelementptr inbounds [100 x [10000 x i8]], [100 x [10000 x i8]]* %1, i64 0, i64 %15
  %17 = getelementptr inbounds [10000 x i8], [10000 x i8]* %16, i64 0, i64 0
  %18 = call i32 (i8*, ...) bitcast (i32 (...)* @gets to i32 (i8*, ...)*)(i8* %17)
  br label %19

19:                                               ; preds = %13
  %20 = load i32, i32* %3, align 4
  %21 = add nsw i32 %20, 1
  store i32 %21, i32* %3, align 4
  br label %9

22:                                               ; preds = %9
  store i32 0, i32* %3, align 4
  br label %23

23:                                               ; preds = %107, %22
  %24 = load i32, i32* %3, align 4
  %25 = load i32, i32* %2, align 4
  %26 = icmp slt i32 %24, %25
  br i1 %26, label %27, label %110

27:                                               ; preds = %23
  store i32 0, i32* %4, align 4
  br label %28

28:                                               ; preds = %98, %27
  %29 = load i32, i32* %4, align 4
  %30 = icmp slt i32 %29, 100000
  br i1 %30, label %31, label %41

31:                                               ; preds = %28
  %32 = load i32, i32* %3, align 4
  %33 = sext i32 %32 to i64
  %34 = getelementptr inbounds [100 x [10000 x i8]], [100 x [10000 x i8]]* %1, i64 0, i64 %33
  %35 = load i32, i32* %4, align 4
  %36 = sext i32 %35 to i64
  %37 = getelementptr inbounds [10000 x i8], [10000 x i8]* %34, i64 0, i64 %36
  %38 = load i8, i8* %37, align 1
  %39 = sext i8 %38 to i32
  %40 = icmp ne i32 %39, 0
  br label %41

41:                                               ; preds = %31, %28
  %42 = phi i1 [ false, %28 ], [ %40, %31 ]
  br i1 %42, label %43, label %101

43:                                               ; preds = %41
  store i32 0, i32* %6, align 4
  store i32 0, i32* %5, align 4
  br label %44

44:                                               ; preds = %81, %43
  %45 = load i32, i32* %5, align 4
  %46 = icmp slt i32 %45, 100000
  br i1 %46, label %47, label %57

47:                                               ; preds = %44
  %48 = load i32, i32* %3, align 4
  %49 = sext i32 %48 to i64
  %50 = getelementptr inbounds [100 x [10000 x i8]], [100 x [10000 x i8]]* %1, i64 0, i64 %49
  %51 = load i32, i32* %5, align 4
  %52 = sext i32 %51 to i64
  %53 = getelementptr inbounds [10000 x i8], [10000 x i8]* %50, i64 0, i64 %52
  %54 = load i8, i8* %53, align 1
  %55 = sext i8 %54 to i32
  %56 = icmp ne i32 %55, 0
  br label %57

57:                                               ; preds = %47, %44
  %58 = phi i1 [ false, %44 ], [ %56, %47 ]
  br i1 %58, label %59, label %84

59:                                               ; preds = %57
  %60 = load i32, i32* %3, align 4
  %61 = sext i32 %60 to i64
  %62 = getelementptr inbounds [100 x [10000 x i8]], [100 x [10000 x i8]]* %1, i64 0, i64 %61
  %63 = load i32, i32* %4, align 4
  %64 = sext i32 %63 to i64
  %65 = getelementptr inbounds [10000 x i8], [10000 x i8]* %62, i64 0, i64 %64
  %66 = load i8, i8* %65, align 1
  %67 = sext i8 %66 to i32
  %68 = load i32, i32* %3, align 4
  %69 = sext i32 %68 to i64
  %70 = getelementptr inbounds [100 x [10000 x i8]], [100 x [10000 x i8]]* %1, i64 0, i64 %69
  %71 = load i32, i32* %5, align 4
  %72 = sext i32 %71 to i64
  %73 = getelementptr inbounds [10000 x i8], [10000 x i8]* %70, i64 0, i64 %72
  %74 = load i8, i8* %73, align 1
  %75 = sext i8 %74 to i32
  %76 = icmp eq i32 %67, %75
  br i1 %76, label %77, label %80

77:                                               ; preds = %59
  %78 = load i32, i32* %6, align 4
  %79 = add nsw i32 %78, 1
  store i32 %79, i32* %6, align 4
  br label %80

80:                                               ; preds = %77, %59
  br label %81

81:                                               ; preds = %80
  %82 = load i32, i32* %5, align 4
  %83 = add nsw i32 %82, 1
  store i32 %83, i32* %5, align 4
  br label %44

84:                                               ; preds = %57
  %85 = load i32, i32* %6, align 4
  %86 = icmp eq i32 %85, 1
  br i1 %86, label %87, label %97

87:                                               ; preds = %84
  %88 = load i32, i32* %3, align 4
  %89 = sext i32 %88 to i64
  %90 = getelementptr inbounds [100 x [10000 x i8]], [100 x [10000 x i8]]* %1, i64 0, i64 %89
  %91 = load i32, i32* %4, align 4
  %92 = sext i32 %91 to i64
  %93 = getelementptr inbounds [10000 x i8], [10000 x i8]* %90, i64 0, i64 %92
  %94 = load i8, i8* %93, align 1
  %95 = sext i8 %94 to i32
  %96 = call i32 (i8*, ...) @printf(i8* getelementptr inbounds ([4 x i8], [4 x i8]* @.str.1, i64 0, i64 0), i32 %95)
  br label %101

97:                                               ; preds = %84
  br label %98

98:                                               ; preds = %97
  %99 = load i32, i32* %4, align 4
  %100 = add nsw i32 %99, 1
  store i32 %100, i32* %4, align 4
  br label %28

101:                                              ; preds = %87, %41
  %102 = load i32, i32* %6, align 4
  %103 = icmp sgt i32 %102, 1
  br i1 %103, label %104, label %106

104:                                              ; preds = %101
  %105 = call i32 (i8*, ...) @printf(i8* getelementptr inbounds ([4 x i8], [4 x i8]* @.str.2, i64 0, i64 0))
  br label %106

106:                                              ; preds = %104, %101
  br label %107

107:                                              ; preds = %106
  %108 = load i32, i32* %3, align 4
  %109 = add nsw i32 %108, 1
  store i32 %109, i32* %3, align 4
  br label %23

110:                                              ; preds = %23
  ret void
}

declare dso_local i32 @__isoc99_scanf(i8*, ...) #1

declare dso_local i32 @getchar() #1

declare dso_local i32 @gets(...) #1

declare dso_local i32 @printf(i8*, ...) #1


!llvm.module.flags = !{!0}
!llvm.ident = !{!1}

!0 = !{i32 1, !"wchar_size", i32 4}
!1 = !{!"clang version 10.0.0-4ubuntu1 "}
