; ModuleID = 'source-C-CXX/36/250.c'
source_filename = "source-C-CXX/36/250.c"
target datalayout = "e-m:e-p270:32:32-p271:32:32-p272:64:64-i64:64-f80:128-n8:16:32:64-S128"
target triple = "x86_64-pc-linux-gnu"

%struct._IO_FILE = type { i32, i8*, i8*, i8*, i8*, i8*, i8*, i8*, i8*, i8*, i8*, i8*, %struct._IO_marker*, %struct._IO_FILE*, i32, i32, i64, i16, i8, [1 x i8], i8*, i64, %struct._IO_codecvt*, %struct._IO_wide_data*, %struct._IO_FILE*, i8*, i64, i32, [20 x i8] }
%struct._IO_marker = type opaque
%struct._IO_codecvt = type opaque
%struct._IO_wide_data = type opaque

@.str = private unnamed_addr constant [3 x i8] c"%d\00", align 1
@.str.1 = private unnamed_addr constant [4 x i8] c"%c\0A\00", align 1
@stdin = external local_unnamed_addr global %struct._IO_FILE*, align 8
@str = private unnamed_addr constant [3 x i8] c"no\00", align 1

; Function Attrs: nounwind sspstrong uwtable
define dso_local void @main() local_unnamed_addr #0 {
  %1 = alloca [100 x [10000 x i8]], align 16
  %2 = alloca i32, align 4
  %3 = getelementptr inbounds [100 x [10000 x i8]], [100 x [10000 x i8]]* %1, i64 0, i64 0, i64 0
  call void @llvm.lifetime.start.p0i8(i64 1000000, i8* nonnull %3) #5
  %4 = bitcast i32* %2 to i8*
  call void @llvm.lifetime.start.p0i8(i64 4, i8* nonnull %4) #5
  %5 = call i32 (i8*, ...) @__isoc99_scanf(i8* getelementptr inbounds ([3 x i8], [3 x i8]* @.str, i64 0, i64 0), i32* nonnull %2)
  %6 = load %struct._IO_FILE*, %struct._IO_FILE** @stdin, align 8, !tbaa !5
  %7 = call i32 @getc(%struct._IO_FILE* %6) #5
  %8 = load i32, i32* %2, align 4, !tbaa !9
  %9 = icmp sgt i32 %8, 0
  br i1 %9, label %12, label %67

10:                                               ; preds = %12
  %11 = icmp sgt i32 %17, 0
  br i1 %11, label %20, label %67

12:                                               ; preds = %0, %12
  %13 = phi i64 [ %16, %12 ], [ 0, %0 ]
  %14 = getelementptr inbounds [100 x [10000 x i8]], [100 x [10000 x i8]]* %1, i64 0, i64 %13, i64 0
  %15 = call i32 (i8*, ...) bitcast (i32 (...)* @gets to i32 (i8*, ...)*)(i8* nonnull %14) #5
  %16 = add nuw nsw i64 %13, 1
  %17 = load i32, i32* %2, align 4, !tbaa !9
  %18 = sext i32 %17 to i64
  %19 = icmp slt i64 %16, %18
  br i1 %19, label %12, label %10, !llvm.loop !11

20:                                               ; preds = %10, %61
  %21 = phi i64 [ %63, %61 ], [ 0, %10 ]
  %22 = phi i32 [ %62, %61 ], [ undef, %10 ]
  %23 = getelementptr inbounds [100 x [10000 x i8]], [100 x [10000 x i8]]* %1, i64 0, i64 %21, i64 0
  %24 = load i8, i8* %23, align 16, !tbaa !13
  %25 = icmp eq i8 %24, 0
  br i1 %25, label %56, label %33

26:                                               ; preds = %50
  %27 = add nuw nsw i64 %35, 1
  %28 = icmp eq i64 %27, 100000
  br i1 %28, label %56, label %29, !llvm.loop !14

29:                                               ; preds = %26
  %30 = getelementptr inbounds [100 x [10000 x i8]], [100 x [10000 x i8]]* %1, i64 0, i64 %21, i64 %27
  %31 = load i8, i8* %30, align 1, !tbaa !13
  %32 = icmp eq i8 %31, 0
  br i1 %32, label %56, label %33, !llvm.loop !14

33:                                               ; preds = %20, %29
  %34 = phi i8 [ %31, %29 ], [ %24, %20 ]
  %35 = phi i64 [ %27, %29 ], [ 0, %20 ]
  br label %36

36:                                               ; preds = %68, %33
  %37 = phi i64 [ 0, %33 ], [ %72, %68 ]
  %38 = phi i32 [ 0, %33 ], [ %71, %68 ]
  %39 = getelementptr inbounds [100 x [10000 x i8]], [100 x [10000 x i8]]* %1, i64 0, i64 %21, i64 %37
  %40 = load i8, i8* %39, align 2, !tbaa !13
  %41 = icmp eq i8 %40, 0
  br i1 %41, label %50, label %42

42:                                               ; preds = %36
  %43 = icmp eq i8 %34, %40
  %44 = zext i1 %43 to i32
  %45 = add nuw nsw i32 %38, %44
  %46 = or i64 %37, 1
  %47 = getelementptr inbounds [100 x [10000 x i8]], [100 x [10000 x i8]]* %1, i64 0, i64 %21, i64 %46
  %48 = load i8, i8* %47, align 1, !tbaa !13
  %49 = icmp eq i8 %48, 0
  br i1 %49, label %50, label %68

50:                                               ; preds = %68, %42, %36
  %51 = phi i32 [ %38, %36 ], [ %45, %42 ], [ %71, %68 ]
  %52 = icmp eq i32 %51, 1
  br i1 %52, label %53, label %26

53:                                               ; preds = %50
  %54 = sext i8 %34 to i32
  %55 = call i32 (i8*, ...) @printf(i8* nonnull dereferenceable(1) getelementptr inbounds ([4 x i8], [4 x i8]* @.str.1, i64 0, i64 0), i32 %54)
  br label %61

56:                                               ; preds = %29, %26, %20
  %57 = phi i32 [ %22, %20 ], [ %51, %26 ], [ %51, %29 ]
  %58 = icmp sgt i32 %57, 1
  br i1 %58, label %59, label %61

59:                                               ; preds = %56
  %60 = call i32 @puts(i8* nonnull dereferenceable(1) getelementptr inbounds ([3 x i8], [3 x i8]* @str, i64 0, i64 0))
  br label %61

61:                                               ; preds = %53, %56, %59
  %62 = phi i32 [ 1, %53 ], [ %57, %56 ], [ %57, %59 ]
  %63 = add nuw nsw i64 %21, 1
  %64 = load i32, i32* %2, align 4, !tbaa !9
  %65 = sext i32 %64 to i64
  %66 = icmp slt i64 %63, %65
  br i1 %66, label %20, label %67, !llvm.loop !15

67:                                               ; preds = %61, %0, %10
  call void @llvm.lifetime.end.p0i8(i64 4, i8* nonnull %4) #5
  call void @llvm.lifetime.end.p0i8(i64 1000000, i8* nonnull %3) #5
  ret void

68:                                               ; preds = %42
  %69 = icmp eq i8 %34, %48
  %70 = zext i1 %69 to i32
  %71 = add nuw nsw i32 %45, %70
  %72 = add nuw nsw i64 %37, 2
  %73 = icmp eq i64 %72, 100000
  br i1 %73, label %50, label %36, !llvm.loop !16
}

; Function Attrs: argmemonly mustprogress nofree nosync nounwind willreturn
declare void @llvm.lifetime.start.p0i8(i64 immarg, i8* nocapture) #1

; Function Attrs: nofree nounwind
declare noundef i32 @__isoc99_scanf(i8* nocapture noundef readonly, ...) local_unnamed_addr #2

declare i32 @gets(...) local_unnamed_addr #3

; Function Attrs: nofree nounwind
declare noundef i32 @printf(i8* nocapture noundef readonly, ...) local_unnamed_addr #2

; Function Attrs: argmemonly mustprogress nofree nosync nounwind willreturn
declare void @llvm.lifetime.end.p0i8(i64 immarg, i8* nocapture) #1

; Function Attrs: nofree nounwind
declare noundef i32 @getc(%struct._IO_FILE* nocapture noundef) local_unnamed_addr #2

; Function Attrs: nofree nounwind
declare noundef i32 @puts(i8* nocapture noundef readonly) local_unnamed_addr #4


!llvm.module.flags = !{!0, !1, !2, !3}
!llvm.ident = !{!4}

!0 = !{i32 1, !"wchar_size", i32 4}
!1 = !{i32 7, !"PIC Level", i32 2}
!2 = !{i32 7, !"PIE Level", i32 2}
!3 = !{i32 7, !"uwtable", i32 1}
!4 = !{!"clang version 13.0.0"}
!5 = !{!6, !6, i64 0}
!6 = !{!"any pointer", !7, i64 0}
!7 = !{!"omnipotent char", !8, i64 0}
!8 = !{!"Simple C/C++ TBAA"}
!9 = !{!10, !10, i64 0}
!10 = !{!"int", !7, i64 0}
!11 = distinct !{!11, !12}
!12 = !{!"llvm.loop.mustprogress"}
!13 = !{!7, !7, i64 0}
!14 = distinct !{!14, !12}
!15 = distinct !{!15, !12}
!16 = distinct !{!16, !12}
